(dp0
S'0|$$'
p1
(lp2
S'2'
p3
asS'9|$$'
p4
(lp5
S'11'
p6
aS'8'
p7
asS'29|$$'
p8
(lp9
S'32'
p10
asS'4|b'
p11
(lp12
S'5'
p13
asS'46|\n'
p14
(lp15
S'47'
p16
asS'27|$$'
p17
(lp18
S'28'
p19
asS'40|z'
p20
(lp21
S'41'
p22
asS'47|$$'
p23
(lp24
S'45'
p25
asS'31|$$'
p26
(lp27
S'33'
p28
aS'30'
p29
asS'8|d'
p30
(lp31
S'9'
p32
asS'22|$$'
p33
(lp34
S'20'
p35
aS'23'
p36
asS'41|$$'
p37
(lp38
S'43'
p39
aS'40'
p40
asS'16|b'
p41
(lp42
S'17'
p43
asS'3|$$'
p44
(lp45
S'4'
p46
asS'43|$$'
p47
(lp48
S'35'
p49
asS'26|x'
p50
(lp51
S'27'
p52
asS'2|a'
p53
(lp54
S'3'
p55
asS'30|z'
p56
(lp57
S'31'
p58
asS'19|$$'
p59
(lp60
S'22'
p61
asS'39|$$'
p62
(lp63
S'42'
p64
asS'37|$$'
p65
(lp66
S'38'
p67
asS'23|$$'
p68
(lp69
S'13'
p70
asS'24|$$'
p71
(lp72
S'26'
p73
asS'20|d'
p74
(lp75
S'21'
p76
asS'14|a'
p77
(lp78
S'15'
p79
asS'br_stanja'
p80
I48
sS'33|$$'
p81
(lp82
S'25'
p83
asS'5|$$'
p84
(lp85
S'6'
p86
asS'12|$$'
p87
(lp88
S'14'
p89
asS'15|$$'
p90
(lp91
S'16'
p92
asS'28|y'
p93
(lp94
S'29'
p95
asS'18|c'
p96
(lp97
S'19'
p98
asS'32|$$'
p99
(lp100
S'30'
p101
aS'33'
p102
asS'44|$$'
p103
(lp104
S'46'
p105
asS'21|$$'
p106
(lp107
S'23'
p108
aS'20'
p109
asS'17|$$'
p110
(lp111
S'18'
p112
asS'34|$$'
p113
(lp114
S'36'
p115
asS'11|$$'
p116
(lp117
S'1'
p118
asS'38|y'
p119
(lp120
S'39'
p121
asS'7|$$'
p122
(lp123
S'10'
p124
asS'36|x'
p125
(lp126
S'37'
p127
asS'10|$$'
p128
(lp129
g7
aS'11'
p130
asS'42|$$'
p131
(lp132
S'40'
p133
aS'43'
p134
asS'6|c'
p135
(lp136
S'7'
p137
as.